; Function Attrs: mustprogress nofree norecurse nosync nounwind willreturn memory(argmem: read) uwtable
define hidden noundef zeroext i1 @_ZNK7datalog12rule_eq_procclEPKNS_4ruleES3_(ptr nocapture noundef nonnull readnone align 1 dereferenceable(1) %this, ptr nocapture noundef readonly %r1, ptr nocapture noundef readonly %r2) local_unnamed_addr #9 align 2 {
entry:
  %m_head.i = getelementptr inbounds i8, ptr %r1, i64 40
  %0 = load ptr, ptr %m_head.i, align 8
  %m_head.i13 = getelementptr inbounds i8, ptr %r2, i64 40
  %1 = load ptr, ptr %m_head.i13, align 8
  %cmp.not = icmp eq ptr %0, %1
  br i1 %cmp.not, label %if.end, label %return

if.end:                                           ; preds = %entry
  %m_tail_size.i = getelementptr inbounds i8, ptr %r1, i64 56
  %2 = load i32, ptr %m_tail_size.i, align 8
  %m_tail_size.i14 = getelementptr inbounds i8, ptr %r2, i64 56
  %3 = load i32, ptr %m_tail_size.i14, align 8
  %cmp5.not = icmp eq i32 %3, %2
  br i1 %cmp5.not, label %for.cond.preheader, label %return

for.cond.preheader:                               ; preds = %if.end
  %m_tail.i = getelementptr inbounds i8, ptr %r1, i64 80
  %cmp828.not = icmp eq i32 %2, 0
  br i1 %cmp828.not, label %return, label %for.body.lr.ph

for.body.lr.ph:                                   ; preds = %for.cond.preheader
  %m_tail.i15 = getelementptr inbounds i8, ptr %r2, i64 80
  %wide.trip.count = zext i32 %2 to i64
  br label %for.body

for.cond:                                         ; preds = %if.end13
  %indvars.iv.next = add nuw nsw i64 %indvars.iv, 1
  %exitcond.not = icmp eq i64 %indvars.iv.next, %wide.trip.count
  br i1 %exitcond.not, label %return, label %for.body, !llvm.loop !119

for.body:                                         ; preds = %for.body.lr.ph, %for.cond
  %indvars.iv = phi i64 [ 0, %for.body.lr.ph ], [ %indvars.iv.next, %for.cond ]
  %arrayidx.i = getelementptr inbounds [0 x ptr], ptr %m_tail.i, i64 0, i64 %indvars.iv
  %4 = load ptr, ptr %arrayidx.i, align 8
  %5 = ptrtoint ptr %4 to i64
  %and.i = and i64 %5, -8
  %6 = inttoptr i64 %and.i to ptr
  %arrayidx.i17 = getelementptr inbounds [0 x ptr], ptr %m_tail.i15, i64 0, i64 %indvars.iv
  %7 = load ptr, ptr %arrayidx.i17, align 8
  %8 = ptrtoint ptr %7 to i64
  %and.i18 = and i64 %8, -8
  %9 = inttoptr i64 %and.i18 to ptr
  %cmp11.not = icmp eq ptr %6, %9
  br i1 %cmp11.not, label %if.end13, label %return

if.end13:                                         ; preds = %for.body
  %and.i22 = and i64 %5, 7
  %cmp.i = icmp eq i64 %and.i22, 1
  %and.i26 = and i64 %8, 7
  %cmp.i27 = icmp eq i64 %and.i26, 1
  %10 = xor i1 %cmp.i, %cmp.i27
  br i1 %10, label %return, label %for.cond

return:                                           ; preds = %for.body, %if.end13, %for.cond, %for.cond.preheader, %if.end, %entry
  %retval.0 = phi i1 [ false, %entry ], [ false, %if.end ], [ true, %for.cond.preheader ], [ false, %for.body ], [ false, %if.end13 ], [ true, %for.cond ]
  ret i1 %retval.0
}